; Function Attrs: nounwind uwtable
define internal fastcc noalias nonnull ptr @_init_l_Lean_ScopedEnvExtension_add___at_Lean_Meta_Grind_addEMatchTheorem___spec__1___closed__1() unnamed_addr #1 {
  %1 = load ptr, ptr @l_Lean_PersistentHashMap_empty___at_Lean_Meta_Grind_instInhabitedEMatchTheorems___spec__1___closed__2, align 8, !tbaa !9
  tail call void @lean_inc_heartbeat() #9
  %2 = tail call noalias ptr @mi_malloc_small(i64 noundef 56) #9
  %3 = icmp eq ptr %2, null
  br i1 %3, label %4, label %lean_alloc_ctor.exit

4:                                                ; preds = %0
  tail call void @lean_internal_panic_out_of_memory() #10
  unreachable

lean_alloc_ctor.exit:                             ; preds = %0
  %5 = getelementptr inbounds nuw i8, ptr %2, i64 4
  store i32 1, ptr %2, align 4, !tbaa !4
  store i32 393272, ptr %5, align 4
  %6 = getelementptr inbounds nuw i8, ptr %2, i64 8
  store ptr %1, ptr %6, align 8, !tbaa !9
  %7 = getelementptr inbounds nuw i8, ptr %2, i64 16
  store ptr %1, ptr %7, align 8, !tbaa !9
  %8 = getelementptr inbounds nuw i8, ptr %2, i64 24
  store ptr %1, ptr %8, align 8, !tbaa !9
  %9 = getelementptr inbounds nuw i8, ptr %2, i64 32
  store ptr %1, ptr %9, align 8, !tbaa !9
  %10 = getelementptr inbounds nuw i8, ptr %2, i64 40
  store ptr %1, ptr %10, align 8, !tbaa !9
  %11 = getelementptr inbounds nuw i8, ptr %2, i64 48
  store ptr %1, ptr %11, align 8, !tbaa !9
  ret ptr %2
}